; Function Attrs: nounwind uwtable
define ptr @l_Lean_Parser_withOpenFn(ptr noundef %0, ptr noundef %1, ptr noundef %2) #1 {
  %4 = getelementptr inbounds nuw i8, ptr %2, i64 8
  %5 = load ptr, ptr %4, align 8, !tbaa !9
  %6 = ptrtoint ptr %5 to i64
  %7 = and i64 %6, 1
  %.not = icmp eq i64 %7, 0
  br i1 %.not, label %8, label %14

8:                                                ; preds = %3
  %.val.i = load i32, ptr %5, align 4, !tbaa !4
  %9 = icmp sgt i32 %.val.i, 0
  br i1 %9, label %10, label %12, !prof !11

10:                                               ; preds = %8
  %11 = add nuw i32 %.val.i, 1
  store i32 %11, ptr %5, align 4, !tbaa !4
  br label %14

12:                                               ; preds = %8
  %.not.i49 = icmp eq i32 %.val.i, 0
  br i1 %.not.i49, label %14, label %13

13:                                               ; preds = %12
  tail call void @lean_inc_ref_cold(ptr noundef nonnull %5) #6
  br label %14

14:                                               ; preds = %3, %10, %12, %13
  %15 = tail call ptr @l_Lean_Parser_SyntaxStack_size(ptr noundef %5) #6
  %16 = ptrtoint ptr %15 to i64
  %17 = and i64 %16, 1
  %.not53 = icmp eq i64 %17, 0
  br i1 %.not53, label %19, label %lean_nat_lt.exit, !prof !16

lean_nat_lt.exit:                                 ; preds = %14
  %18 = icmp ugt ptr %15, inttoptr (i64 1 to ptr)
  br i1 %18, label %36, label %27

19:                                               ; preds = %14
  %20 = tail call zeroext i1 @lean_nat_big_lt(ptr noundef nonnull inttoptr (i64 1 to ptr), ptr noundef %15) #6
  %21 = load i32, ptr %15, align 4, !tbaa !4
  %22 = icmp sgt i32 %21, 1
  br i1 %22, label %23, label %25, !prof !11

23:                                               ; preds = %19
  %24 = add nsw i32 %21, -1
  store i32 %24, ptr %15, align 4, !tbaa !4
  br i1 %20, label %36, label %27

25:                                               ; preds = %19
  %.not.i = icmp eq i32 %21, 0
  br i1 %.not.i, label %lean_dec.exit38, label %26

26:                                               ; preds = %25
  tail call void @lean_dec_ref_cold(ptr noundef nonnull %15) #6
  br i1 %20, label %36, label %27

lean_dec.exit38:                                  ; preds = %25
  br i1 %20, label %36, label %27

27:                                               ; preds = %lean_nat_lt.exit, %23, %26, %lean_dec.exit38
  br i1 %.not, label %28, label %lean_dec.exit37

28:                                               ; preds = %27
  %29 = load i32, ptr %5, align 4, !tbaa !4
  %30 = icmp sgt i32 %29, 1
  br i1 %30, label %31, label %33, !prof !11

31:                                               ; preds = %28
  %32 = add nsw i32 %29, -1
  store i32 %32, ptr %5, align 4, !tbaa !4
  br label %lean_dec.exit37

33:                                               ; preds = %28
  %.not.i39 = icmp eq i32 %29, 0
  br i1 %.not.i39, label %lean_dec.exit37, label %34

34:                                               ; preds = %33
  tail call void @lean_dec_ref_cold(ptr noundef nonnull %5) #6
  br label %lean_dec.exit37

lean_dec.exit37:                                  ; preds = %34, %33, %31, %27
  %35 = tail call ptr @lean_apply_2(ptr noundef %0, ptr noundef %1, ptr noundef nonnull %2) #6
  br label %85

36:                                               ; preds = %lean_nat_lt.exit, %23, %26, %lean_dec.exit38
  %37 = tail call ptr @l_Lean_Parser_SyntaxStack_back(ptr noundef %5) #6
  br i1 %.not, label %38, label %lean_dec.exit36

38:                                               ; preds = %36
  %39 = load i32, ptr %5, align 4, !tbaa !4
  %40 = icmp sgt i32 %39, 1
  br i1 %40, label %41, label %43, !prof !11

41:                                               ; preds = %38
  %42 = add nsw i32 %39, -1
  store i32 %42, ptr %5, align 4, !tbaa !4
  br label %lean_dec.exit36

43:                                               ; preds = %38
  %.not.i41 = icmp eq i32 %39, 0
  br i1 %.not.i41, label %lean_dec.exit36, label %44

44:                                               ; preds = %43
  tail call void @lean_dec_ref_cold(ptr noundef nonnull %5) #6
  br label %lean_dec.exit36

lean_dec.exit36:                                  ; preds = %44, %43, %41, %36
  %45 = ptrtoint ptr %37 to i64
  %46 = and i64 %45, 1
  %.not55 = icmp eq i64 %46, 0
  br i1 %.not55, label %47, label %lean_inc.exit

47:                                               ; preds = %lean_dec.exit36
  %.val.i50 = load i32, ptr %37, align 4, !tbaa !4
  %48 = icmp sgt i32 %.val.i50, 0
  br i1 %48, label %49, label %51, !prof !11

49:                                               ; preds = %47
  %50 = add nuw i32 %.val.i50, 1
  store i32 %50, ptr %37, align 4, !tbaa !4
  br label %lean_inc.exit

51:                                               ; preds = %47
  %.not.i51 = icmp eq i32 %.val.i50, 0
  br i1 %.not.i51, label %lean_inc.exit, label %52

52:                                               ; preds = %51
  tail call void @lean_inc_ref_cold(ptr noundef nonnull %37) #6
  br label %lean_inc.exit

lean_inc.exit:                                    ; preds = %52, %51, %49, %lean_dec.exit36
  %53 = tail call ptr @l_Lean_Syntax_getKind(ptr noundef %37) #6
  %54 = load ptr, ptr @l_Lean_Parser_withOpenFn___closed__2, align 8, !tbaa !9
  %55 = tail call zeroext i8 @lean_name_eq(ptr noundef %53, ptr noundef %54) #6
  %56 = ptrtoint ptr %53 to i64
  %57 = and i64 %56, 1
  %.not56 = icmp eq i64 %57, 0
  br i1 %.not56, label %58, label %lean_dec.exit35

58:                                               ; preds = %lean_inc.exit
  %59 = load i32, ptr %53, align 4, !tbaa !4
  %60 = icmp sgt i32 %59, 1
  br i1 %60, label %61, label %63, !prof !11

61:                                               ; preds = %58
  %62 = add nsw i32 %59, -1
  store i32 %62, ptr %53, align 4, !tbaa !4
  br label %lean_dec.exit35

63:                                               ; preds = %58
  %.not.i43 = icmp eq i32 %59, 0
  br i1 %.not.i43, label %lean_dec.exit35, label %64

64:                                               ; preds = %63
  tail call void @lean_dec_ref_cold(ptr noundef nonnull %53) #6
  br label %lean_dec.exit35

lean_dec.exit35:                                  ; preds = %64, %63, %61, %lean_inc.exit
  %65 = icmp eq i8 %55, 0
  br i1 %65, label %66, label %75

66:                                               ; preds = %lean_dec.exit35
  br i1 %.not55, label %67, label %lean_dec.exit34

67:                                               ; preds = %66
  %68 = load i32, ptr %37, align 4, !tbaa !4
  %69 = icmp sgt i32 %68, 1
  br i1 %69, label %70, label %72, !prof !11

70:                                               ; preds = %67
  %71 = add nsw i32 %68, -1
  store i32 %71, ptr %37, align 4, !tbaa !4
  br label %lean_dec.exit34

72:                                               ; preds = %67
  %.not.i45 = icmp eq i32 %68, 0
  br i1 %.not.i45, label %lean_dec.exit34, label %73

73:                                               ; preds = %72
  tail call void @lean_dec_ref_cold(ptr noundef nonnull %37) #6
  br label %lean_dec.exit34

lean_dec.exit34:                                  ; preds = %73, %72, %70, %66
  %74 = tail call ptr @lean_apply_2(ptr noundef %0, ptr noundef %1, ptr noundef nonnull %2) #6
  br label %85

75:                                               ; preds = %lean_dec.exit35
  %76 = tail call ptr @l_Lean_Syntax_getArg(ptr noundef %37, ptr noundef nonnull inttoptr (i64 3 to ptr)) #6
  br i1 %.not55, label %77, label %lean_dec.exit

77:                                               ; preds = %75
  %78 = load i32, ptr %37, align 4, !tbaa !4
  %79 = icmp sgt i32 %78, 1
  br i1 %79, label %80, label %82, !prof !11

80:                                               ; preds = %77
  %81 = add nsw i32 %78, -1
  store i32 %81, ptr %37, align 4, !tbaa !4
  br label %lean_dec.exit

82:                                               ; preds = %77
  %.not.i47 = icmp eq i32 %78, 0
  br i1 %.not.i47, label %lean_dec.exit, label %83

83:                                               ; preds = %82
  tail call void @lean_dec_ref_cold(ptr noundef nonnull %37) #6
  br label %lean_dec.exit

lean_dec.exit:                                    ; preds = %83, %82, %80, %75
  %84 = tail call ptr @l_Lean_Parser_withOpenDeclFnCore(ptr noundef %76, ptr noundef %0, ptr noundef %1, ptr noundef nonnull %2)
  br label %85

85:                                               ; preds = %lean_dec.exit34, %lean_dec.exit, %lean_dec.exit37
  %.0 = phi ptr [ %35, %lean_dec.exit37 ], [ %74, %lean_dec.exit34 ], [ %84, %lean_dec.exit ]
  ret ptr %.0
}